; Function Attrs: mustprogress nounwind uwtable
define dso_local void @_ZN4node12FreePlatformEPNS_20MultiIsolatePlatformE(ptr noundef %platform) local_unnamed_addr #3 {
entry:
  %isnull = icmp eq ptr %platform, null
  br i1 %isnull, label %delete.end, label %delete.notnull

delete.notnull:                                   ; preds = %entry
  %vtable = load ptr, ptr %platform, align 8
  %vfn = getelementptr inbounds i8, ptr %vtable, i64 8
  %0 = load ptr, ptr %vfn, align 8
  tail call void %0(ptr noundef nonnull align 8 dereferenceable(8) %platform) #12
  br label %delete.end

delete.end:                                       ; preds = %delete.notnull, %entry
  ret void
}